(dp1
S'parError'
p2
(dp3
S'k_qcd_55'
p4
F0.018746234376767396
sS'qcd_55_0'
p5
F12.49440956592832
sS'fZinv_55_0'
p6
F0.12857129970343689
sS'fZinv_55_3'
p7
F0.21169325479840298
sS'rhoMuonW_55_0'
p8
F0.26310900801267079
sS'ewk_55_1'
p9
F2.3683149943297961
sS'ewk_55_0'
p10
F5.3922877434286667
sS'ewk_55_3'
p11
F1.8007582506304214
sS'ewk_55_2'
p12
F2.3228518790107415
sS'rhoPhotZ_55_0'
p13
F0.33547475844609492
ssS'lMax'
p14
F-22.526444694711216
sS'funcBestFit'
p15
(dp16
S'hadB_55_0'
p17
F32.479017869409276
sS'fZinv_55_1'
p18
F0.41323802985162655
sS'fZinv_55_2'
p19
F0.39236580753516115
sS'zInv_55_0'
p20
F8.5892248583599731
sS'zInv_55_1'
p21
F2.6068780699517431
sS'zInv_55_2'
p22
F2.7143621900157586
sS'zInv_55_3'
p23
F1.0490609229479488
sS'ttw_55_0'
p24
F11.356422155431822
sS'ttw_55_3'
p25
F1.8847288038509142
sS'ttw_55_2'
p26
F4.2035754536014567
sS'photExp_55_2'
p27
F4.6689766775053414
sS'photExp_55_3'
p28
F1.4927288727155927
sS'photExp_55_0'
p29
F24.013016720337308
sS'photExp_55_1'
p30
F4.7302479164854407
sS'muonB_55_1'
p31
F4.3430290853985118
sS'muonB_55_0'
p32
F13.308422591009895
sS'muonB_55_3'
p33
F2.1346006287698018
sS'muonB_55_2'
p34
F5.0901023960442959
sS'ttw_55_1'
p35
F3.7015395529077622
sS'hadB_55_1'
p36
F10.873160069054286
sS'hadB_55_2'
p37
F9.749381249055638
sS'hadB_55_3'
p38
F4.1190540297925633
sS'qcd_55_1'
p39
F4.5647424461947814
sS'qcd_55_2'
p40
F2.8314436054384222
sS'qcd_55_3'
p41
F1.1852643029937
ssS'chi2Prob'
p42
F0.86389164381575467
sS'parBestFit'
p43
(dp44
g4
F0.0015262961362630945
sg5
F12.533370855617482
sg6
F0.43063154844868107
sg7
F0.35757877034105218
sg8
F1.0085896866096986
sg9
F6.3084176228595048
sg10
F19.945647013791795
sg11
F2.9337897267988633
sg12
F6.9179376436172157
sg13
F1.0109501742954672
ss.