(dp1
S'parError'
p2
(dp3
S'rhoMumuZ_0b_le3j_2'
p4
F0.045014617343879848
sS'rhoMuonW_0b_le3j_2'
p5
F0.048997379101770544
sS'rhoMuonW_0b_le3j_3'
p6
F0.084552666985628078
sS'rhoMuonW_0b_le3j_0'
p7
F0.050079398202250436
sS'rhoMuonW_0b_le3j_1'
p8
F0.046553832244834614
sS'k_qcd_0b_le3j'
p9
F0.0068080987294799333
sS'rhoMuonW_0b_le3j_4'
p10
F0.14273236829750036
sS'qcd_0b_le3j_0'
p11
F2225.3050055489157
sS'rhoMumuZ_0b_le3j_3'
p12
F0.09765940325089062
sS'fZinv_0b_le3j_0'
p13
F0.021931288709701013
sS'fZinv_0b_le3j_7'
p14
F0.043537268831564113
sS'ewk_0b_le3j_5'
p15
F3.565309093446313
sS'ewk_0b_le3j_4'
p16
F10.645745713477652
sS'ewk_0b_le3j_7'
p17
F1.7988639100647301
sS'ewk_0b_le3j_6'
p18
F2.2989050309762824
sS'rhoMumuZ_0b_le3j_0'
p19
F0.049819987350510186
sS'ewk_0b_le3j_0'
p20
F101.21200228710632
sS'ewk_0b_le3j_3'
p21
F14.035408063213367
sS'ewk_0b_le3j_2'
p22
F39.361430618812278
sS'rhoMumuZ_0b_le3j_4'
p23
F0.11726564024805342
sS'rhoPhotZ_0b_le3j_3'
p24
F0.08123855620579612
sS'rhoPhotZ_0b_le3j_2'
p25
F0.042758333163487539
sS'rhoPhotZ_0b_le3j_4'
p26
F0.12844763970529555
sS'ewk_0b_le3j_1'
p27
F52.485732272853511
sS'rhoMumuZ_0b_le3j_1'
p28
F0.051419007093415459
ssS'lMax'
p29
F-107.89071374373411
sS'funcBestFit'
p30
(dp31
S'photExp_0b_le3j_2'
p32
F2637.4145597847214
sS'photExp_0b_le3j_3'
p33
F817.91198831483348
sS'photExp_0b_le3j_4'
p34
F260.78391159126932
sS'photExp_0b_le3j_5'
p35
F85.072427650082105
sS'photExp_0b_le3j_6'
p36
F31.323719361085651
sS'photExp_0b_le3j_7'
p37
F25.381348547379815
sS'zInv_0b_le3j_2'
p38
F1074.4412452589011
sS'zInv_0b_le3j_3'
p39
F317.01532977161281
sS'zInv_0b_le3j_0'
p40
F3288.0677369330979
sS'zInv_0b_le3j_1'
p41
F1556.6497588697616
sS'zInv_0b_le3j_6'
p42
F13.236131201849821
sS'zInv_0b_le3j_7'
p43
F10.779660750419545
sS'zInv_0b_le3j_4'
p44
F108.99203923282199
sS'zInv_0b_le3j_5'
p45
F31.13576627489795
sS'muonB_0b_le3j_5'
p46
F307.34032258277142
sS'hadB_0b_le3j_2'
p47
F1955.0395773629034
sS'muonB_0b_le3j_7'
p48
F194.8434338166997
sS'muonB_0b_le3j_6'
p49
F147.19226932705439
sS'muonB_0b_le3j_1'
p50
F5044.0334172450139
sS'muonB_0b_le3j_0'
p51
F9696.4453194545404
sS'muonB_0b_le3j_3'
p52
F1805.7266874226989
sS'ttw_0b_le3j_0'
p53
F2946.3848381240286
sS'hadB_0b_le3j_0'
p54
F6235.1036339434058
sS'qcd_0b_le3j_2'
p55
F0.0060884787973584107
sS'qcd_0b_le3j_3'
p56
F8.4763491340742182e-05
sS'qcd_0b_le3j_1'
p57
F0.068095183272920703
sS'qcd_0b_le3j_6'
p58
F5.7958498598111888e-10
sS'qcd_0b_le3j_7'
p59
F6.8262765183787965e-13
sS'qcd_0b_le3j_4'
p60
F1.4611704876018034e-06
sS'qcd_0b_le3j_5'
p61
F4.8215336602721864e-08
sS'fZinv_0b_le3j_1'
p62
F0.53679860460626871
sS'hadB_0b_le3j_6'
p63
F21.16740925740444
sS'fZinv_0b_le3j_3'
p64
F0.56855642830621811
sS'fZinv_0b_le3j_2'
p65
F0.54957690053287556
sS'fZinv_0b_le3j_5'
p66
F0.60651548385290321
sS'fZinv_0b_le3j_4'
p67
F0.5873480399629929
sS'fZinv_0b_le3j_6'
p68
F0.625307095509678
sS'ttw_0b_le3j_7'
p69
F5.3675096151167248
sS'muonB_0b_le3j_4'
p70
F765.55478793555778
sS'ttw_0b_le3j_6'
p71
F7.9312780549750324
sS'mumuExp_0b_le3j_7'
p72
F28.646472986815599
sS'mumuExp_0b_le3j_6'
p73
F22.364037647149619
sS'mumuExp_0b_le3j_5'
p74
F46.231875257945717
sS'muonB_0b_le3j_2'
p75
F4655.3703884478282
sS'mumuExp_0b_le3j_3'
p76
F237.79293056228812
sS'mumuExp_0b_le3j_2'
p77
F594.26620905475806
sS'mumuExp_0b_le3j_1'
p78
F706.98192582438173
sS'mumuExp_0b_le3j_0'
p79
F1334.371452274102
sS'ttw_0b_le3j_1'
p80
F1343.226927679254
sS'hadB_0b_le3j_3'
p81
F557.57944538391496
sS'ttw_0b_le3j_3'
p82
F240.5640308488108
sS'hadB_0b_le3j_1'
p83
F2899.9447817322884
sS'ttw_0b_le3j_5'
p84
F20.199718315053975
sS'ttw_0b_le3j_4'
p85
F76.574323157166177
sS'hadB_0b_le3j_4'
p86
F185.56636385115866
sS'hadB_0b_le3j_5'
p87
F51.335484638167259
sS'mumuExp_0b_le3j_4'
p88
F116.00528211565923
sS'hadB_0b_le3j_7'
p89
F16.147170365536951
sS'ttw_0b_le3j_2'
p90
F880.59224362520501
ssS'chi2Prob'
p91
F0.3552140433217546
sS'parBestFit'
p92
(dp93
g4
F0.87412019458997658
sg5
F0.98981244879145058
sg6
F1.0046405119793254
sg7
F1.0131753249273037
sg8
F0.9556947467101391
sg9
F0.029596266266282978
sg10
F1.0309544754754687
sg11
F0.65105888627924835
sg12
F1.0611700859199944
sg13
F0.52740279877788132
sg14
F0.66758822173742127
sg15
F51.335484589951925
sg16
F185.56636238998817
sg17
F16.147170365536269
sg18
F21.167409256824854
sg19
F1.0147851848434515
sg20
F6234.4525750571265
sg21
F557.57936062042359
sg22
F1955.033488884106
sg23
F0.87483693808677054
sg24
F1.0058868211442009
sg25
F0.99109729397505819
sg26
F0.97681189345461716
sg27
F2899.8766865490156
sg28
F1.009202297232374
ss.