(dp1
S'parError'
p2
(dp3
S'k_qcd_55'
p4
F0.006046687556995195
sS'fZinv_55_5'
p5
F0.12705032215563691
sS'qcd_55_0'
p6
F70.560806745600701
sS'fZinv_55_7'
p7
F0.53070449510356832
sS'fZinv_55_6'
p8
F0.061129179637451903
sS'fZinv_55_1'
p9
F0.060650732484696573
sS'fZinv_55_0'
p10
F0.053465728157609055
sS'fZinv_55_3'
p11
F0.072839665306693946
sS'fZinv_55_2'
p12
F0.064926661821747222
sS'rhoMuonW_55_0'
p13
F0.16124176990825001
sS'fZinv_55_4'
p14
F0.08123089718837892
sS'A_ewk_55'
p15
F1.1738687780149526e-06
sS'rhoPhotZ_55_0'
p16
F0.16169274198941563
ssS'lMax'
p17
F-70.677486603285544
sS'funcBestFit'
p18
(dp19
S'hadB_55_0'
p20
F787.04607236491483
sS'mumuExp_55_2'
p21
F4.9067449284259608
sS'mumuExp_55_1'
p22
F10.550776721682482
sS'mumuExp_55_0'
p23
F18.379995750652746
sS'mumuExp_55_7'
p24
F0
sS'muonB_55_7'
p25
F0.38023316872243429
sS'mumuExp_55_5'
p26
F3.3408440981611811
sS'mumuExp_55_4'
p27
F1.6710270119181905
sS'zInv_55_7'
p28
F2.2464994436643804
sS'zInv_55_0'
p29
F262.91914451264859
sS'zInv_55_1'
p30
F107.80358428966018
sS'zInv_55_2'
p31
F90.995282958378127
sS'zInv_55_3'
p32
F27.905461222372399
sS'zInv_55_4'
p33
F8.2279843354782418
sS'zInv_55_5'
p34
F5.0065251196663301
sS'zInv_55_6'
p35
F2.6312010951936697
sS'ttw_55_0'
p36
F381.43058816542248
sS'ttw_55_3'
p37
F30.117059489166838
sS'mumuExp_55_6'
p38
F0
sS'photExp_55_6'
p39
F6.1084176111476705
sS'photExp_55_7'
p40
F5.2153204064028005
sS'photExp_55_4'
p41
F19.101529149896873
sS'ttw_55_2'
p42
F92.62172453181347
sS'photExp_55_2'
p43
F211.2484636653779
sS'photExp_55_3'
p44
F64.783421947227239
sS'photExp_55_0'
p45
F833.21146028342014
sS'photExp_55_1'
p46
F324.67949018327454
sS'ttw_55_5'
p47
F2.8054202020905552
sS'hadB_55_5'
p48
F7.9219482035608513
sS'ttw_55_7'
p49
F0.70112626644684839
sS'hadB_55_7'
p50
F2.9587160084170083
sS'muonB_55_3'
p51
F36.607522115565033
sS'photExp_55_5'
p52
F11.622808407721502
sS'ewk_55_5'
p53
F7.8119453217568857
sS'ewk_55_4'
p54
F20.153639426193358
sS'ewk_55_7'
p55
F2.9476257101112289
sS'ewk_55_6'
p56
F3.2890013694969467
sS'ewk_55_1'
p57
F267.42983549220003
sS'ewk_55_0'
p58
F644.34973267807106
sS'ewk_55_3'
p59
F58.022520711539237
sS'ewk_55_2'
p60
F183.61700749019161
sS'ttw_55_1'
p61
F159.62625120253983
sS'hadB_55_1'
p62
F310.01698639278652
sS'hadB_55_2'
p63
F202.55315982416485
sS'hadB_55_3'
p64
F61.100439461763479
sS'hadB_55_4'
p65
F20.703194975122717
sS'ttw_55_4'
p66
F11.925655090715116
sS'hadB_55_6'
p67
F3.3129490811348008
sS'ttw_55_6'
p68
F0.65780027430327703
sS'muonB_55_1'
p69
F182.18461419100475
sS'muonB_55_0'
p70
F366.10793368382821
sS'qcd_55_4'
p71
F0.54955554892936032
sS'qcd_55_5'
p72
F0.11000288180396536
sS'qcd_55_6'
p73
F0.023947711637854051
sS'qcd_55_7'
p74
F0.011090298305779567
sS'qcd_55_1'
p75
F42.587150900586472
sS'qcd_55_2'
p76
F18.936152333973229
sS'qcd_55_3'
p77
F3.0779187502242422
sS'muonB_55_6'
p78
F2.1062375804632629
sS'muonB_55_2'
p79
F114.2704265402021
sS'muonB_55_5'
p80
F4.7884081706909152
sS'mumuExp_55_3'
p81
F4.5978414565481396
sS'muonB_55_4'
p82
F9.9000695951308
ssS'chi2Prob'
p83
F0.11596862112343914
sS'parBestFit'
p84
(dp85
g4
F0.0065432912869259896
sg5
F0.64088071708883598
sg6
F142.69633968684374
sg7
F0.76213863787326264
sg8
F0.7999999998772005
sg9
F0.40310978799822217
sg10
F0.40803795078783373
sg11
F0.48094189773493751
sg12
F0.49557110314652569
sg13
F1.090661107743057
sg14
F0.4082629524861135
sg15
F1.1341384032748092e-05
sg16
F1.0332640481467756
ss.