(dp1
S'parError'
p2
(dp3
S'ewk_ge4b_ge4j_2'
p4
F0.31291693695721046
sS'ewk_ge4b_ge4j_1'
p5
F0.1830709358614907
sS'ewk_ge4b_ge4j_0'
p6
F0.25523571577748955
sS'qcd_ge4b_ge4j_0'
p7
F0.80864000296857497
sS'rhoMuonW_ge4b_ge4j_0'
p8
F0.20593943460764808
sS'k_qcd_ge4b_ge4j'
p9
F0.0068647456101317839
ssS'lMax'
p10
F-2.6383960454529483
sS'funcBestFit'
p11
(dp12
S'hadB_ge4b_ge4j_0'
p13
F0.86794578856757076
sS'hadB_ge4b_ge4j_1'
p14
F0.27687141261915171
sS'hadB_ge4b_ge4j_2'
p15
F0.64497153030776555
sS'muonB_ge4b_ge4j_2'
p16
F4.3516293391373813
sS'muonB_ge4b_ge4j_1'
p17
F0.81867552888915129
sS'muonB_ge4b_ge4j_0'
p18
F1.0372760292653016
sS'qcd_ge4b_ge4j_1'
p19
F0.096143211509856413
sS'qcd_ge4b_ge4j_2'
p20
F0.0013971851118646972
ssS'chi2Prob'
p21
F0.16010591119482848
sS'parBestFit'
p22
(dp23
g4
F0.64357434519590084
sg5
F0.18072820110929533
sg6
F0.24991553370897091
sg7
F0.61803025485859986
sg8
F0.94151467573257852
sg9
F0.029795874604823303
ss.